target datalayout = "e-m:e-p270:32:32-p271:32:32-p272:64:64-i64:64-i128:128-f80:128-n8:16:32:64-S128"
target triple = "x86_64-pc-linux-gnu"

%struct.test_fixture = type { ptr, ptr, i32, i32, i32, ptr, i32, ptr }

@newkey = internal global ptr null, align 8
@cert = internal global ptr null, align 8
@.str.14 = private unnamed_addr constant [31 x i8] c"../openssl/test/cmp_msg_test.c\00", align 1
@.str.26 = private unnamed_addr constant [36 x i8] c"test_cmp_create_ir_protection_fails\00", align 1
@.str.52 = private unnamed_addr constant [49 x i8] c"OSSL_CMP_CTX_set1_pkey(fixture->cmp_ctx, newkey)\00", align 1
@.str.53 = private unnamed_addr constant [46 x i8] c"SET_OPT_UNPROTECTED_SEND(fixture->cmp_ctx, 0)\00", align 1
@.str.54 = private unnamed_addr constant [47 x i8] c"OSSL_CMP_CTX_set1_cert(fixture->cmp_ctx, cert)\00", align 1

; Function Attrs: nounwind uwtable
define internal void @tear_down(ptr noundef %0) #0 {
  %2 = alloca ptr, align 8
  store ptr %0, ptr %2, align 8, !tbaa !17
  %3 = load ptr, ptr %2, align 8, !tbaa !17
  %4 = getelementptr inbounds nuw %struct.test_fixture, ptr %3, i32 0, i32 1
  %5 = load ptr, ptr %4, align 8, !tbaa !28
  call void @OSSL_CMP_CTX_free(ptr noundef %5)
  %6 = load ptr, ptr %2, align 8, !tbaa !17
  %7 = getelementptr inbounds nuw %struct.test_fixture, ptr %6, i32 0, i32 5
  %8 = load ptr, ptr %7, align 8, !tbaa !37
  call void @OSSL_CMP_MSG_free(ptr noundef %8)
  %9 = load ptr, ptr %2, align 8, !tbaa !17
  %10 = getelementptr inbounds nuw %struct.test_fixture, ptr %9, i32 0, i32 7
  %11 = load ptr, ptr %10, align 8, !tbaa !30
  call void @OSSL_CMP_PKISI_free(ptr noundef %11)
  %12 = load ptr, ptr %2, align 8, !tbaa !17
  call void @CRYPTO_free(ptr noundef %12, ptr noundef @.str.14, i32 noundef 43)
  ret void
}

; Function Attrs: nounwind uwtable
define internal i32 @test_cmp_create_ir_protection_fails() #0 {
  %1 = alloca i32, align 4
  %2 = alloca ptr, align 8
  %3 = alloca i32, align 4
  %4 = alloca i32, align 4
  call void @llvm.lifetime.start.p0(i64 8, ptr %2) #4
  %5 = call ptr @set_up(ptr noundef @.str.26)
  store ptr %5, ptr %2, align 8, !tbaa !17
  call void @llvm.lifetime.start.p0(i64 4, ptr %3) #4
  store i32 0, ptr %3, align 4, !tbaa !19
  %6 = load ptr, ptr %2, align 8, !tbaa !17
  %7 = icmp eq ptr %6, null
  br i1 %7, label %8, label %9

8:                                                ; preds = %0
  store i32 0, ptr %1, align 4
  store i32 1, ptr %4, align 4
  br label %55

9:                                                ; preds = %0
  %10 = load ptr, ptr %2, align 8, !tbaa !17
  %11 = getelementptr inbounds nuw %struct.test_fixture, ptr %10, i32 0, i32 2
  store i32 0, ptr %11, align 8, !tbaa !21
  %12 = load ptr, ptr %2, align 8, !tbaa !17
  %13 = getelementptr inbounds nuw %struct.test_fixture, ptr %12, i32 0, i32 3
  store i32 -1, ptr %13, align 4, !tbaa !26
  %14 = load ptr, ptr %2, align 8, !tbaa !17
  %15 = getelementptr inbounds nuw %struct.test_fixture, ptr %14, i32 0, i32 6
  store i32 0, ptr %15, align 8, !tbaa !27
  %16 = load ptr, ptr %2, align 8, !tbaa !17
  %17 = getelementptr inbounds nuw %struct.test_fixture, ptr %16, i32 0, i32 1
  %18 = load ptr, ptr %17, align 8, !tbaa !28
  %19 = load ptr, ptr @newkey, align 8, !tbaa !4
  %20 = call i32 @OSSL_CMP_CTX_set1_pkey(ptr noundef %18, ptr noundef %19)
  %21 = icmp ne i32 %20, 0
  %22 = zext i1 %21 to i32
  %23 = call i32 @test_true(ptr noundef @.str.14, i32 noundef 171, ptr noundef @.str.52, i32 noundef %22)
  %24 = icmp ne i32 %23, 0
  br i1 %24, label %25, label %44

25:                                               ; preds = %9
  %26 = load ptr, ptr %2, align 8, !tbaa !17
  %27 = getelementptr inbounds nuw %struct.test_fixture, ptr %26, i32 0, i32 1
  %28 = load ptr, ptr %27, align 8, !tbaa !28
  %29 = call i32 @OSSL_CMP_CTX_set_option(ptr noundef %28, i32 noundef 30, i32 noundef 0)
  %30 = icmp ne i32 %29, 0
  %31 = zext i1 %30 to i32
  %32 = call i32 @test_true(ptr noundef @.str.14, i32 noundef 172, ptr noundef @.str.53, i32 noundef %31)
  %33 = icmp ne i32 %32, 0
  br i1 %33, label %34, label %44

34:                                               ; preds = %25
  %35 = load ptr, ptr %2, align 8, !tbaa !17
  %36 = getelementptr inbounds nuw %struct.test_fixture, ptr %35, i32 0, i32 1
  %37 = load ptr, ptr %36, align 8, !tbaa !28
  %38 = load ptr, ptr @cert, align 8, !tbaa !9
  %39 = call i32 @OSSL_CMP_CTX_set1_cert(ptr noundef %37, ptr noundef %38)
  %40 = icmp ne i32 %39, 0
  %41 = zext i1 %40 to i32
  %42 = call i32 @test_true(ptr noundef @.str.14, i32 noundef 174, ptr noundef @.str.54, i32 noundef %41)
  %43 = icmp ne i32 %42, 0
  br i1 %43, label %46, label %44

44:                                               ; preds = %34, %25, %9
  %45 = load ptr, ptr %2, align 8, !tbaa !17
  call void @tear_down(ptr noundef %45)
  store ptr null, ptr %2, align 8, !tbaa !17
  br label %46

46:                                               ; preds = %44, %34
  %47 = load ptr, ptr %2, align 8, !tbaa !17
  %48 = icmp ne ptr %47, null
  br i1 %48, label %49, label %53

49:                                               ; preds = %46
  %50 = load ptr, ptr %2, align 8, !tbaa !17
  %51 = call i32 @execute_certreq_create_test(ptr noundef %50)
  store i32 %51, ptr %3, align 4, !tbaa !19
  %52 = load ptr, ptr %2, align 8, !tbaa !17
  call void @tear_down(ptr noundef %52)
  br label %53

53:                                               ; preds = %49, %46
  %54 = load i32, ptr %3, align 4, !tbaa !19
  store i32 %54, ptr %1, align 4
  store i32 1, ptr %4, align 4
  br label %55

55:                                               ; preds = %53, %8
  call void @llvm.lifetime.end.p0(i64 4, ptr %3) #4
  call void @llvm.lifetime.end.p0(i64 8, ptr %2) #4
  %56 = load i32, ptr %1, align 4
  ret i32 %56
}