; Function Attrs: nounwind uwtable
define internal i32 @test_cmp_create_ir_protection_fails() #0 {
  %1 = tail call fastcc ptr @set_up(ptr noundef nonnull @.str.26)
  %2 = icmp eq ptr %1, null
  br i1 %2, label %34, label %3

3:                                                ; preds = %0
  %4 = getelementptr inbounds nuw i8, ptr %1, i64 16
  store i32 0, ptr %4, align 8, !tbaa !17
  %5 = getelementptr inbounds nuw i8, ptr %1, i64 20
  store i32 -1, ptr %5, align 4, !tbaa !23
  %6 = getelementptr inbounds nuw i8, ptr %1, i64 40
  store i32 0, ptr %6, align 8, !tbaa !24
  %7 = getelementptr inbounds nuw i8, ptr %1, i64 8
  %8 = load ptr, ptr %7, align 8, !tbaa !25
  %9 = load ptr, ptr @newkey, align 8, !tbaa !4
  %10 = tail call i32 @OSSL_CMP_CTX_set1_pkey(ptr noundef %8, ptr noundef %9) #4
  %11 = icmp ne i32 %10, 0
  %12 = zext i1 %11 to i32
  %13 = tail call i32 @test_true(ptr noundef nonnull @.str.14, i32 noundef 171, ptr noundef nonnull @.str.52, i32 noundef %12) #4
  %.not = icmp eq i32 %13, 0
  br i1 %.not, label %.sink.split, label %14

14:                                               ; preds = %3
  %15 = load ptr, ptr %7, align 8, !tbaa !25
  %16 = tail call i32 @OSSL_CMP_CTX_set_option(ptr noundef %15, i32 noundef 30, i32 noundef 0) #4
  %17 = icmp ne i32 %16, 0
  %18 = zext i1 %17 to i32
  %19 = tail call i32 @test_true(ptr noundef nonnull @.str.14, i32 noundef 172, ptr noundef nonnull @.str.53, i32 noundef %18) #4
  %.not15 = icmp eq i32 %19, 0
  br i1 %.not15, label %.sink.split, label %20

20:                                               ; preds = %14
  %21 = load ptr, ptr %7, align 8, !tbaa !25
  %22 = load ptr, ptr @cert, align 8, !tbaa !9
  %23 = tail call i32 @OSSL_CMP_CTX_set1_cert(ptr noundef %21, ptr noundef %22) #4
  %24 = icmp ne i32 %23, 0
  %25 = zext i1 %24 to i32
  %26 = tail call i32 @test_true(ptr noundef nonnull @.str.14, i32 noundef 174, ptr noundef nonnull @.str.54, i32 noundef %25) #4
  %.not16 = icmp eq i32 %26, 0
  br i1 %.not16, label %.sink.split, label %27

27:                                               ; preds = %20
  %28 = tail call fastcc i32 @execute_certreq_create_test(ptr noundef %1)
  br label %.sink.split

.sink.split:                                      ; preds = %20, %14, %3, %27
  %.013.ph = phi i32 [ %28, %27 ], [ 0, %3 ], [ 0, %14 ], [ 0, %20 ]
  %29 = load ptr, ptr %7, align 8, !tbaa !25
  tail call void @OSSL_CMP_CTX_free(ptr noundef %29) #4
  %30 = getelementptr inbounds nuw i8, ptr %1, i64 32
  %31 = load ptr, ptr %30, align 8, !tbaa !26
  tail call void @OSSL_CMP_MSG_free(ptr noundef %31) #4
  %32 = getelementptr inbounds nuw i8, ptr %1, i64 48
  %33 = load ptr, ptr %32, align 8, !tbaa !27
  tail call void @OSSL_CMP_PKISI_free(ptr noundef %33) #4
  tail call void @CRYPTO_free(ptr noundef nonnull %1, ptr noundef nonnull @.str.14, i32 noundef 43) #4
  br label %34

34:                                               ; preds = %.sink.split, %0
  %.013 = phi i32 [ 0, %0 ], [ %.013.ph, %.sink.split ]
  ret i32 %.013
}